target datalayout = "e-m:e-p270:32:32-p271:32:32-p272:64:64-i64:64-i128:128-f80:128-n8:16:32:64-S128"
target triple = "x86_64-pc-linux-gnu"

%struct.Vec_Int_t_ = type { i32, i32, ptr }
%struct.Vec_Str_t_ = type { i32, i32, ptr }
%struct.Gia_Man_t_ = type { ptr, ptr, i32, i32, i32, i32, ptr, ptr, i32, i32, i32, ptr, ptr, %struct.Vec_Int_t_, %struct.Vec_Int_t_, i32, i32, i32, %struct.Vec_Int_t_, ptr, ptr, ptr, i32, i32, i32, i32, ptr, ptr, ptr, ptr, ptr, i32, i32, ptr, i32, ptr, ptr, ptr, ptr, ptr, ptr, ptr, ptr, ptr, ptr, ptr, ptr, ptr, ptr, ptr, ptr, ptr, ptr, %struct.Vec_Int_t_, %struct.Vec_Int_t_, ptr, ptr, ptr, ptr, ptr, ptr, ptr, ptr, ptr, ptr, ptr, ptr, ptr, ptr, ptr, ptr, ptr, ptr, ptr, ptr, ptr, i32, float, float, ptr, ptr, i32, ptr, ptr, ptr, ptr, ptr, ptr, ptr, ptr, ptr, ptr, ptr, ptr, ptr, ptr, ptr, i64, i64, ptr, ptr, i32, i32, i32, i32, i32, i32, i32, i32, i32, i32, i32, i32, ptr, ptr, ptr, ptr, ptr, ptr, ptr, ptr, i32, i32, i32, ptr, i32, i32, ptr, ptr, ptr, ptr, ptr, ptr, i32, i32, ptr, %struct.Vec_Int_t_, %struct.Vec_Int_t_, %struct.Vec_Int_t_, ptr, ptr, ptr, i32, i32, i32, i32, ptr, ptr, ptr, ptr, ptr }
%struct.timespec = type { i64, i64 }

@.str.5 = private unnamed_addr constant [5 x i8] c"%s =\00", align 1
@.str.7 = private unnamed_addr constant [11 x i8] c"%9.2f sec\0A\00", align 1
@.str.9 = private unnamed_addr constant [37 x i8] c"Output %4d:  Supp = %4d. Cone =%6d.\0A\00", align 1
@.str.10 = private unnamed_addr constant [29 x i8] c"Supp new = %4d. Sop = %4d.  \00", align 1
@.str.11 = private unnamed_addr constant [5 x i8] c"Time\00", align 1

; Function Attrs: inlinehint nounwind uwtable
define internal void @Abc_PrintTime(i32 noundef %0, ptr noundef %1, i64 noundef %2) #2 {
  %4 = alloca i32, align 4
  %5 = alloca ptr, align 8
  %6 = alloca i64, align 8
  store i32 %0, ptr %4, align 4, !tbaa !11
  store ptr %1, ptr %5, align 8, !tbaa !84
  store i64 %2, ptr %6, align 8, !tbaa !86
  %7 = load ptr, ptr %5, align 8, !tbaa !84
  call void (i32, ptr, ...) @Abc_Print(i32 noundef 1, ptr noundef @.str.5, ptr noundef %7)
  %8 = load i64, ptr %6, align 8, !tbaa !86
  %9 = sitofp i64 %8 to double
  %10 = fmul double 1.000000e+00, %9
  %11 = fdiv double %10, 1.000000e+06
  call void (i32, ptr, ...) @Abc_Print(i32 noundef 1, ptr noundef @.str.7, double noundef %11)
  ret void
}

; Function Attrs: inlinehint nounwind uwtable
define internal i32 @Vec_StrSize(ptr noundef %0) #2 {
  %2 = alloca ptr, align 8
  store ptr %0, ptr %2, align 8, !tbaa !8
  %3 = load ptr, ptr %2, align 8, !tbaa !8
  %4 = getelementptr inbounds nuw %struct.Vec_Str_t_, ptr %3, i32 0, i32 1
  %5 = load i32, ptr %4, align 4, !tbaa !43
  ret i32 %5
}

; Function Attrs: inlinehint nounwind uwtable
define internal i32 @Gia_ManAndNum(ptr noundef %0) #2 {
  %2 = alloca ptr, align 8
  store ptr %0, ptr %2, align 8, !tbaa !87
  %3 = load ptr, ptr %2, align 8, !tbaa !87
  %4 = getelementptr inbounds nuw %struct.Gia_Man_t_, ptr %3, i32 0, i32 4
  %5 = load i32, ptr %4, align 8, !tbaa !142
  %6 = load ptr, ptr %2, align 8, !tbaa !87
  %7 = getelementptr inbounds nuw %struct.Gia_Man_t_, ptr %6, i32 0, i32 11
  %8 = load ptr, ptr %7, align 8, !tbaa !111
  %9 = call i32 @Vec_IntSize(ptr noundef %8)
  %10 = sub nsw i32 %5, %9
  %11 = load ptr, ptr %2, align 8, !tbaa !87
  %12 = getelementptr inbounds nuw %struct.Gia_Man_t_, ptr %11, i32 0, i32 12
  %13 = load ptr, ptr %12, align 8, !tbaa !112
  %14 = call i32 @Vec_IntSize(ptr noundef %13)
  %15 = sub nsw i32 %10, %14
  %16 = sub nsw i32 %15, 1
  ret i32 %16
}

; Function Attrs: inlinehint nounwind uwtable
define internal i32 @Vec_IntSize(ptr noundef %0) #2 {
  %2 = alloca ptr, align 8
  store ptr %0, ptr %2, align 8, !tbaa !47
  %3 = load ptr, ptr %2, align 8, !tbaa !47
  %4 = getelementptr inbounds nuw %struct.Vec_Int_t_, ptr %3, i32 0, i32 1
  %5 = load i32, ptr %4, align 4, !tbaa !48
  ret i32 %5
}

; Function Attrs: inlinehint nounwind uwtable
define internal i64 @Abc_Clock() #2 {
  %1 = alloca i64, align 8
  %2 = alloca %struct.timespec, align 8
  %3 = alloca i32, align 4
  %4 = alloca i64, align 8
  call void @llvm.lifetime.start.p0(i64 16, ptr %2) #11
  %5 = call i32 @clock_gettime(i32 noundef 1, ptr noundef %2) #11
  %6 = icmp slt i32 %5, 0
  br i1 %6, label %7, label %8

7:                                                ; preds = %0
  store i64 -1, ptr %1, align 8
  store i32 1, ptr %3, align 4
  br label %19

8:                                                ; preds = %0
  call void @llvm.lifetime.start.p0(i64 8, ptr %4) #11
  %9 = getelementptr inbounds nuw %struct.timespec, ptr %2, i32 0, i32 0
  %10 = load i64, ptr %9, align 8, !tbaa !161
  %11 = mul nsw i64 %10, 1000000
  store i64 %11, ptr %4, align 8, !tbaa !86
  %12 = getelementptr inbounds nuw %struct.timespec, ptr %2, i32 0, i32 1
  %13 = load i64, ptr %12, align 8, !tbaa !163
  %14 = mul nsw i64 %13, 1000000
  %15 = sdiv i64 %14, 1000000000
  %16 = load i64, ptr %4, align 8, !tbaa !86
  %17 = add nsw i64 %16, %15
  store i64 %17, ptr %4, align 8, !tbaa !86
  %18 = load i64, ptr %4, align 8, !tbaa !86
  store i64 %18, ptr %1, align 8
  store i32 1, ptr %3, align 4
  call void @llvm.lifetime.end.p0(i64 8, ptr %4) #11
  br label %19

19:                                               ; preds = %8, %7
  call void @llvm.lifetime.end.p0(i64 16, ptr %2) #11
  %20 = load i64, ptr %1, align 8
  ret i64 %20
}

; Function Attrs: nounwind uwtable
define ptr @Abc_NtkClpGiaOne(ptr noundef %0, i32 noundef %1, i32 noundef %2, i32 noundef %3, i32 noundef %4, i32 noundef %5, ptr noundef %6, i32 noundef %7, ptr noundef %8, ptr noundef %9) #0 {
  %11 = alloca ptr, align 8
  %12 = alloca ptr, align 8
  %13 = alloca i32, align 4
  %14 = alloca i32, align 4
  %15 = alloca i32, align 4
  %16 = alloca i32, align 4
  %17 = alloca i32, align 4
  %18 = alloca ptr, align 8
  %19 = alloca i32, align 4
  %20 = alloca ptr, align 8
  %21 = alloca ptr, align 8
  %22 = alloca ptr, align 8
  %23 = alloca i64, align 8
  %24 = alloca ptr, align 8
  %25 = alloca i32, align 4
  store ptr %0, ptr %12, align 8, !tbaa !87
  store i32 %1, ptr %13, align 4, !tbaa !11
  store i32 %2, ptr %14, align 4, !tbaa !11
  store i32 %3, ptr %15, align 4, !tbaa !11
  store i32 %4, ptr %16, align 4, !tbaa !11
  store i32 %5, ptr %17, align 4, !tbaa !11
  store ptr %6, ptr %18, align 8, !tbaa !47
  store i32 %7, ptr %19, align 4, !tbaa !11
  store ptr %8, ptr %20, align 8, !tbaa !47
  store ptr %9, ptr %21, align 8, !tbaa !113
  call void @llvm.lifetime.start.p0(i64 8, ptr %22) #11
  call void @llvm.lifetime.start.p0(i64 8, ptr %23) #11
  %26 = call i64 @Abc_Clock()
  store i64 %26, ptr %23, align 8, !tbaa !86
  call void @llvm.lifetime.start.p0(i64 8, ptr %24) #11
  %27 = load ptr, ptr %12, align 8, !tbaa !87
  %28 = call ptr @Gia_ManDupCones(ptr noundef %27, ptr noundef %13, i32 noundef 1, i32 noundef 1)
  store ptr %28, ptr %24, align 8, !tbaa !87
  %29 = load i32, ptr %19, align 4, !tbaa !11
  %30 = icmp ne i32 %29, 0
  br i1 %30, label %31, label %38

31:                                               ; preds = %10
  %32 = load i32, ptr %13, align 4, !tbaa !11
  %33 = load ptr, ptr %18, align 8, !tbaa !47
  %34 = call i32 @Vec_IntSize(ptr noundef %33)
  %35 = load ptr, ptr %24, align 8, !tbaa !87
  %36 = call i32 @Gia_ManAndNum(ptr noundef %35)
  %37 = call i32 (ptr, ...) @printf(ptr noundef @.str.9, i32 noundef %32, i32 noundef %34, i32 noundef %36)
  br label %38

38:                                               ; preds = %31, %10
  %39 = load ptr, ptr %24, align 8, !tbaa !87
  %40 = load i32, ptr %14, align 4, !tbaa !11
  %41 = load i32, ptr %15, align 4, !tbaa !11
  %42 = load i32, ptr %16, align 4, !tbaa !11
  %43 = load i32, ptr %17, align 4, !tbaa !11
  %44 = load i32, ptr %19, align 4, !tbaa !11
  %45 = call ptr @Bmc_CollapseOneOld(ptr noundef %39, i32 noundef %40, i32 noundef %41, i32 noundef %42, i32 noundef %43, i32 noundef %44)
  store ptr %45, ptr %22, align 8, !tbaa !8
  %46 = load ptr, ptr %24, align 8, !tbaa !87
  call void @Gia_ManStop(ptr noundef %46)
  %47 = load ptr, ptr %22, align 8, !tbaa !8
  %48 = icmp eq ptr %47, null
  br i1 %48, label %49, label %50

49:                                               ; preds = %38
  store ptr null, ptr %11, align 8
  store i32 1, ptr %25, align 4
  br label %77

50:                                               ; preds = %38
  %51 = load ptr, ptr %22, align 8, !tbaa !8
  %52 = load ptr, ptr %18, align 8, !tbaa !47
  %53 = load ptr, ptr %20, align 8, !tbaa !47
  %54 = load ptr, ptr %21, align 8, !tbaa !113
  %55 = call i32 @Abc_NtkCollapseReduce(ptr noundef %51, ptr noundef %52, ptr noundef %53, ptr noundef %54)
  %56 = load i32, ptr %19, align 4, !tbaa !11
  %57 = icmp ne i32 %56, 0
  br i1 %57, label %58, label %68

58:                                               ; preds = %50
  %59 = load ptr, ptr %18, align 8, !tbaa !47
  %60 = call i32 @Vec_IntSize(ptr noundef %59)
  %61 = load ptr, ptr %22, align 8, !tbaa !8
  %62 = call i32 @Vec_StrSize(ptr noundef %61)
  %63 = load ptr, ptr %18, align 8, !tbaa !47
  %64 = call i32 @Vec_IntSize(ptr noundef %63)
  %65 = add nsw i32 %64, 3
  %66 = sdiv i32 %62, %65
  %67 = call i32 (ptr, ...) @printf(ptr noundef @.str.10, i32 noundef %60, i32 noundef %66)
  br label %68

68:                                               ; preds = %58, %50
  %69 = load i32, ptr %19, align 4, !tbaa !11
  %70 = icmp ne i32 %69, 0
  br i1 %70, label %71, label %75

71:                                               ; preds = %68
  %72 = call i64 @Abc_Clock()
  %73 = load i64, ptr %23, align 8, !tbaa !86
  %74 = sub nsw i64 %72, %73
  call void @Abc_PrintTime(i32 noundef 1, ptr noundef @.str.11, i64 noundef %74)
  br label %75

75:                                               ; preds = %71, %68
  %76 = load ptr, ptr %22, align 8, !tbaa !8
  store ptr %76, ptr %11, align 8
  store i32 1, ptr %25, align 4
  br label %77

77:                                               ; preds = %75, %49
  call void @llvm.lifetime.end.p0(i64 8, ptr %24) #11
  call void @llvm.lifetime.end.p0(i64 8, ptr %23) #11
  call void @llvm.lifetime.end.p0(i64 8, ptr %22) #11
  %78 = load ptr, ptr %11, align 8
  ret ptr %78
}