; Function Attrs: nounwind uwtable
define ptr @Abc_NtkClpGiaOne(ptr noundef %0, i32 noundef %1, i32 noundef %2, i32 noundef %3, i32 noundef %4, i32 noundef %5, ptr noundef readonly captures(none) %6, i32 noundef %7, ptr noundef readonly captures(none) %8, ptr noundef readonly captures(none) %9) local_unnamed_addr #0 {
  %11 = alloca %struct.timespec, align 8
  %12 = alloca %struct.timespec, align 8
  %13 = alloca i32, align 4
  store i32 %1, ptr %13, align 4, !tbaa !28
  call void @llvm.lifetime.start.p0(i64 16, ptr nonnull %12) #18
  %14 = call i32 @clock_gettime(i32 noundef 1, ptr noundef nonnull %12) #18
  %15 = icmp slt i32 %14, 0
  br i1 %15, label %Abc_Clock.exit, label %16

16:                                               ; preds = %10
  %17 = load i64, ptr %12, align 8, !tbaa !80
  %.neg29 = mul i64 %17, -1000000
  %18 = getelementptr inbounds nuw i8, ptr %12, i64 8
  %19 = load i64, ptr %18, align 8, !tbaa !82
  %.neg = sdiv i64 %19, -1000
  %.neg30 = add i64 %.neg, %.neg29
  br label %Abc_Clock.exit

Abc_Clock.exit:                                   ; preds = %10, %16
  %.0.i.neg = phi i64 [ %.neg30, %16 ], [ 1, %10 ]
  call void @llvm.lifetime.end.p0(i64 16, ptr nonnull %12) #18
  %20 = call ptr @Gia_ManDupCones(ptr noundef %0, ptr noundef nonnull %13, i32 noundef 1, i32 noundef 1) #18
  %.not = icmp eq i32 %7, 0
  br i1 %.not, label %36, label %21

21:                                               ; preds = %Abc_Clock.exit
  %22 = load i32, ptr %13, align 4, !tbaa !28
  %23 = getelementptr i8, ptr %6, i64 4
  %.val25 = load i32, ptr %23, align 4, !tbaa !23
  %24 = getelementptr inbounds nuw i8, ptr %20, i64 24
  %25 = load i32, ptr %24, align 8, !tbaa !136
  %26 = getelementptr inbounds nuw i8, ptr %20, i64 64
  %27 = load ptr, ptr %26, align 8, !tbaa !108
  %28 = getelementptr i8, ptr %27, i64 4
  %.val3.i = load i32, ptr %28, align 4, !tbaa !23
  %29 = getelementptr inbounds nuw i8, ptr %20, i64 72
  %30 = load ptr, ptr %29, align 8, !tbaa !110
  %31 = getelementptr i8, ptr %30, i64 4
  %.val.i = load i32, ptr %31, align 4, !tbaa !23
  %32 = add i32 %.val.i, %.val3.i
  %33 = xor i32 %32, -1
  %34 = add i32 %25, %33
  %35 = call i32 (ptr, ...) @printf(ptr noundef nonnull dereferenceable(1) @.str.9, i32 noundef %22, i32 noundef %.val25, i32 noundef %34)
  br label %36

36:                                               ; preds = %21, %Abc_Clock.exit
  %37 = call ptr @Bmc_CollapseOneOld(ptr noundef %20, i32 noundef %2, i32 noundef %3, i32 noundef %4, i32 noundef %5, i32 noundef %7) #18
  call void @Gia_ManStop(ptr noundef %20) #18
  %38 = icmp eq ptr %37, null
  br i1 %38, label %.critedge, label %39

39:                                               ; preds = %36
  %40 = call i32 @Abc_NtkCollapseReduce(ptr noundef nonnull %37, ptr noundef %6, ptr noundef %8, ptr noundef %9)
  br i1 %.not, label %.critedge, label %41

41:                                               ; preds = %39
  %42 = getelementptr i8, ptr %6, i64 4
  %.val24 = load i32, ptr %42, align 4, !tbaa !23
  %43 = getelementptr i8, ptr %37, i64 4
  %.val26 = load i32, ptr %43, align 4, !tbaa !3
  %44 = add nsw i32 %.val24, 3
  %45 = sdiv i32 %.val26, %44
  %46 = call i32 (ptr, ...) @printf(ptr noundef nonnull dereferenceable(1) @.str.10, i32 noundef %.val24, i32 noundef %45)
  call void @llvm.lifetime.start.p0(i64 16, ptr nonnull %11) #18
  %47 = call i32 @clock_gettime(i32 noundef 1, ptr noundef nonnull %11) #18
  %48 = icmp slt i32 %47, 0
  br i1 %48, label %Abc_Clock.exit28, label %49

49:                                               ; preds = %41
  %50 = load i64, ptr %11, align 8, !tbaa !80
  %51 = mul nsw i64 %50, 1000000
  %52 = getelementptr inbounds nuw i8, ptr %11, i64 8
  %53 = load i64, ptr %52, align 8, !tbaa !82
  %54 = sdiv i64 %53, 1000
  %55 = add nsw i64 %54, %51
  br label %Abc_Clock.exit28

Abc_Clock.exit28:                                 ; preds = %41, %49
  %.0.i27 = phi i64 [ %55, %49 ], [ -1, %41 ]
  call void @llvm.lifetime.end.p0(i64 16, ptr nonnull %11) #18
  %56 = add i64 %.0.i27, %.0.i.neg
  call void (i32, ptr, ...) @Abc_Print(i32 poison, ptr noundef nonnull @.str.5, ptr noundef nonnull @.str.11)
  %57 = sitofp i64 %56 to double
  %58 = fdiv double %57, 1.000000e+06
  call void (i32, ptr, ...) @Abc_Print(i32 poison, ptr noundef nonnull @.str.7, double noundef %58)
  br label %.critedge

.critedge:                                        ; preds = %Abc_Clock.exit28, %39, %36
  ret ptr %37
}